target datalayout = "e-m:e-p270:32:32-p271:32:32-p272:64:64-i64:64-i128:128-f80:128-n8:16:32:64-S128"
target triple = "x86_64-pc-linux-gnu"

%"struct.icu_77::FormattedStringBuilder::Field" = type { i8 }
%"struct.icu_77::number::impl::UFormattedNumberImpl" = type { %"struct.icu_77::UFormattedValueImpl", %"class.icu_77::IcuCApiHelper.0", [4 x i8], %"class.icu_77::number::FormattedNumber", %"class.icu_77::number::impl::UFormattedNumberData" }
%"struct.icu_77::UFormattedValueImpl" = type { %"class.icu_77::IcuCApiHelper", ptr }
%"class.icu_77::IcuCApiHelper" = type { i32 }
%"class.icu_77::IcuCApiHelper.0" = type { i32 }
%"class.icu_77::number::FormattedNumber" = type <{ %"class.icu_77::FormattedValue", ptr, i32, [4 x i8] }>
%"class.icu_77::FormattedValue" = type { ptr }
%"class.icu_77::number::impl::UFormattedNumberData" = type { %"class.icu_77::FormattedValueStringBuilderImpl.base", [4 x i8], %"class.icu_77::number::impl::DecimalQuantity", %"class.icu_77::MeasureUnit", ptr }
%"class.icu_77::FormattedValueStringBuilderImpl.base" = type <{ %"class.icu_77::FormattedValue", %"class.icu_77::FormattedStringBuilder", %"struct.icu_77::FormattedStringBuilder::Field", [7 x i8], %"class.icu_77::MaybeStackArray.3", i32 }>
%"class.icu_77::FormattedStringBuilder" = type { i8, %"union.icu_77::FormattedStringBuilder::ValueOrHeapArray", %"union.icu_77::FormattedStringBuilder::ValueOrHeapArray.1", i32, i32 }
%"union.icu_77::FormattedStringBuilder::ValueOrHeapArray" = type { %struct.anon, [64 x i8] }
%struct.anon = type { ptr, i32 }
%"union.icu_77::FormattedStringBuilder::ValueOrHeapArray.1" = type { %struct.anon.2, [24 x i8] }
%struct.anon.2 = type { ptr, i32 }
%"class.icu_77::MaybeStackArray.3" = type { ptr, i32, i8, [8 x %"struct.icu_77::SpanInfo"] }
%"struct.icu_77::SpanInfo" = type { i32, i32, i32, i32 }
%"class.icu_77::number::impl::DecimalQuantity" = type <{ %"class.icu_77::IFixedDecimal", i8, [3 x i8], i32, i32, i8, i8, [2 x i8], double, i32, i32, i32, i32, %union.anon, i8, i8, [6 x i8] }>
%"class.icu_77::IFixedDecimal" = type { ptr }
%union.anon = type { %struct.anon.4 }
%struct.anon.4 = type { ptr, i32 }
%"class.icu_77::MeasureUnit" = type <{ %"class.icu_77::UObject", ptr, i16, i8, [5 x i8] }>
%"class.icu_77::UObject" = type { ptr }
%"class.icu_77::UnicodeString" = type { %"class.icu_77::Replaceable", %"union.icu_77::UnicodeString::StackBufferOrFields" }
%"class.icu_77::Replaceable" = type { %"class.icu_77::UObject" }
%"union.icu_77::UnicodeString::StackBufferOrFields" = type { %struct.anon.12, [32 x i8] }
%struct.anon.12 = type { i16, i32, i32, ptr }
%"class.icu_77::Char16Ptr" = type { ptr }

; Function Attrs: inlinehint mustprogress nounwind uwtable
define linkonce_odr void @_ZN6icu_779Char16PtrD2Ev(ptr noundef nonnull align 8 dereferenceable(8) %0) unnamed_addr #2 comdat align 2 {
  %2 = alloca ptr, align 8
  store ptr %0, ptr %2, align 8, !tbaa !94
  %3 = load ptr, ptr %2, align 8
  %4 = getelementptr inbounds nuw %"class.icu_77::Char16Ptr", ptr %3, i32 0, i32 0
  %5 = load ptr, ptr %4, align 8, !tbaa !96
  call void asm sideeffect "", "rm,~{memory},~{dirflag},~{fpsr},~{flags}"(ptr %5) #11, !srcloc !98
  ret void
}

; Function Attrs: inlinehint mustprogress nounwind uwtable
define linkonce_odr void @_ZN6icu_779Char16PtrC2EPDs(ptr noundef nonnull align 8 dereferenceable(8) %0, ptr noundef %1) unnamed_addr #2 comdat align 2 {
  %3 = alloca ptr, align 8
  %4 = alloca ptr, align 8
  store ptr %0, ptr %3, align 8, !tbaa !94
  store ptr %1, ptr %4, align 8, !tbaa !69
  %5 = load ptr, ptr %3, align 8
  %6 = getelementptr inbounds nuw %"class.icu_77::Char16Ptr", ptr %5, i32 0, i32 0
  %7 = load ptr, ptr %4, align 8, !tbaa !69
  store ptr %7, ptr %6, align 8, !tbaa !96
  ret void
}

; Function Attrs: inlinehint mustprogress nounwind uwtable
define internal noundef signext i8 @_ZL9U_FAILURE10UErrorCode(i32 noundef %0) #2 {
  %2 = alloca i32, align 4
  store i32 %0, ptr %2, align 4, !tbaa !15
  %3 = load i32, ptr %2, align 4, !tbaa !15
  %4 = icmp sgt i32 %3, 0
  %5 = zext i1 %4 to i8
  ret i8 %5
}

; Function Attrs: mustprogress nounwind uwtable
define linkonce_odr noundef ptr @_ZN6icu_7713IcuCApiHelperI16UFormattedNumberNS_6number4impl20UFormattedNumberImplELi1178881536EE8validateEPKS1_R10UErrorCode(ptr noundef %0, ptr noundef nonnull align 4 dereferenceable(4) %1) #0 comdat align 2 {
  %3 = alloca ptr, align 8
  %4 = alloca ptr, align 8
  %5 = alloca ptr, align 8
  %6 = alloca ptr, align 8
  %7 = alloca i32, align 4
  store ptr %0, ptr %4, align 8, !tbaa !67
  store ptr %1, ptr %5, align 8, !tbaa !22
  %8 = load ptr, ptr %5, align 8, !tbaa !22
  %9 = load i32, ptr %8, align 4, !tbaa !15
  %10 = call noundef signext i8 @_ZL9U_FAILURE10UErrorCode(i32 noundef %9)
  %11 = icmp ne i8 %10, 0
  br i1 %11, label %12, label %13

12:                                               ; preds = %2
  store ptr null, ptr %3, align 8
  br label %34

13:                                               ; preds = %2
  %14 = load ptr, ptr %4, align 8, !tbaa !67
  %15 = icmp eq ptr %14, null
  br i1 %15, label %16, label %18

16:                                               ; preds = %13
  %17 = load ptr, ptr %5, align 8, !tbaa !22
  store i32 1, ptr %17, align 4, !tbaa !15
  store ptr null, ptr %3, align 8
  br label %34

18:                                               ; preds = %13
  call void @llvm.lifetime.start.p0(i64 8, ptr %6) #11
  %19 = load ptr, ptr %4, align 8, !tbaa !67
  store ptr %19, ptr %6, align 8, !tbaa !23
  %20 = load ptr, ptr %6, align 8, !tbaa !23
  %21 = icmp eq ptr %20, null
  br i1 %21, label %24, label %22

22:                                               ; preds = %18
  %23 = getelementptr inbounds i8, ptr %20, i64 16
  br label %24

24:                                               ; preds = %22, %18
  %25 = phi ptr [ %23, %22 ], [ null, %18 ]
  %26 = getelementptr inbounds nuw %"class.icu_77::IcuCApiHelper.0", ptr %25, i32 0, i32 0
  %27 = load i32, ptr %26, align 4, !tbaa !33
  %28 = icmp ne i32 %27, 1178881536
  br i1 %28, label %29, label %31

29:                                               ; preds = %24
  %30 = load ptr, ptr %5, align 8, !tbaa !22
  store i32 3, ptr %30, align 4, !tbaa !15
  store ptr null, ptr %3, align 8
  store i32 1, ptr %7, align 4
  br label %33

31:                                               ; preds = %24
  %32 = load ptr, ptr %6, align 8, !tbaa !23
  store ptr %32, ptr %3, align 8
  store i32 1, ptr %7, align 4
  br label %33

33:                                               ; preds = %31, %29
  call void @llvm.lifetime.end.p0(i64 8, ptr %6) #11
  br label %34

34:                                               ; preds = %33, %16, %12
  %35 = load ptr, ptr %3, align 8
  ret ptr %35
}

; Function Attrs: mustprogress uwtable
define i32 @unumf_resultToString_77(ptr noundef %0, ptr noundef %1, i32 noundef %2, ptr noundef %3) #1 personality ptr @__gxx_personality_v0 {
  %5 = alloca i32, align 4
  %6 = alloca ptr, align 8
  %7 = alloca ptr, align 8
  %8 = alloca i32, align 4
  %9 = alloca ptr, align 8
  %10 = alloca ptr, align 8
  %11 = alloca i32, align 4
  %12 = alloca %"class.icu_77::UnicodeString", align 8
  %13 = alloca %"class.icu_77::Char16Ptr", align 8
  %14 = alloca ptr, align 8
  %15 = alloca i32, align 4
  store ptr %0, ptr %6, align 8, !tbaa !67
  store ptr %1, ptr %7, align 8, !tbaa !69
  store i32 %2, ptr %8, align 4, !tbaa !14
  store ptr %3, ptr %9, align 8, !tbaa !22
  call void @llvm.lifetime.start.p0(i64 8, ptr %10) #11
  %16 = load ptr, ptr %6, align 8, !tbaa !67
  %17 = load ptr, ptr %9, align 8, !tbaa !22
  %18 = call noundef ptr @_ZN6icu_7713IcuCApiHelperI16UFormattedNumberNS_6number4impl20UFormattedNumberImplELi1178881536EE8validateEPKS1_R10UErrorCode(ptr noundef %16, ptr noundef nonnull align 4 dereferenceable(4) %17)
  store ptr %18, ptr %10, align 8, !tbaa !23
  %19 = load ptr, ptr %9, align 8, !tbaa !22
  %20 = load i32, ptr %19, align 4, !tbaa !15
  %21 = call noundef signext i8 @_ZL9U_FAILURE10UErrorCode(i32 noundef %20)
  %22 = icmp ne i8 %21, 0
  br i1 %22, label %23, label %24

23:                                               ; preds = %4
  store i32 0, ptr %5, align 4
  store i32 1, ptr %11, align 4
  br label %54

24:                                               ; preds = %4
  %25 = load ptr, ptr %7, align 8, !tbaa !69
  %26 = icmp eq ptr %25, null
  br i1 %26, label %27, label %30

27:                                               ; preds = %24
  %28 = load i32, ptr %8, align 4, !tbaa !14
  %29 = icmp ne i32 %28, 0
  br i1 %29, label %33, label %35

30:                                               ; preds = %24
  %31 = load i32, ptr %8, align 4, !tbaa !14
  %32 = icmp slt i32 %31, 0
  br i1 %32, label %33, label %35

33:                                               ; preds = %30, %27
  %34 = load ptr, ptr %9, align 8, !tbaa !22
  store i32 1, ptr %34, align 4, !tbaa !15
  store i32 0, ptr %5, align 4
  store i32 1, ptr %11, align 4
  br label %54

35:                                               ; preds = %30, %27
  call void @llvm.lifetime.start.p0(i64 64, ptr %12) #11
  %36 = load ptr, ptr %10, align 8, !tbaa !23
  %37 = getelementptr inbounds nuw %"struct.icu_77::number::impl::UFormattedNumberImpl", ptr %36, i32 0, i32 4
  %38 = load ptr, ptr %9, align 8, !tbaa !22
  call void @_ZNK6icu_7731FormattedValueStringBuilderImpl12toTempStringER10UErrorCode(ptr dead_on_unwind writable sret(%"class.icu_77::UnicodeString") align 8 %12, ptr noundef nonnull align 8 dereferenceable(300) %37, ptr noundef nonnull align 4 dereferenceable(4) %38)
  %39 = load ptr, ptr %7, align 8, !tbaa !69
  invoke void @_ZN6icu_779Char16PtrC2EPDs(ptr noundef nonnull align 8 dereferenceable(8) %13, ptr noundef %39)
          to label %40 unwind label %45

40:                                               ; preds = %35
  %41 = load i32, ptr %8, align 4, !tbaa !14
  %42 = load ptr, ptr %9, align 8, !tbaa !22
  %43 = invoke noundef i32 @_ZNK6icu_7713UnicodeString7extractENS_9Char16PtrEiR10UErrorCode(ptr noundef nonnull align 8 dereferenceable(64) %12, ptr noundef %13, i32 noundef %41, ptr noundef nonnull align 4 dereferenceable(4) %42)
          to label %44 unwind label %49

44:                                               ; preds = %40
  store i32 %43, ptr %5, align 4
  call void @_ZN6icu_779Char16PtrD2Ev(ptr noundef nonnull align 8 dereferenceable(8) %13) #11
  call void @_ZN6icu_7713UnicodeStringD1Ev(ptr noundef nonnull align 8 dereferenceable(64) %12) #11
  call void @llvm.lifetime.end.p0(i64 64, ptr %12) #11
  store i32 1, ptr %11, align 4
  br label %54

45:                                               ; preds = %35
  %46 = landingpad { ptr, i32 }
          cleanup
  %47 = extractvalue { ptr, i32 } %46, 0
  store ptr %47, ptr %14, align 8
  %48 = extractvalue { ptr, i32 } %46, 1
  store i32 %48, ptr %15, align 4
  br label %53

49:                                               ; preds = %40
  %50 = landingpad { ptr, i32 }
          cleanup
  %51 = extractvalue { ptr, i32 } %50, 0
  store ptr %51, ptr %14, align 8
  %52 = extractvalue { ptr, i32 } %50, 1
  store i32 %52, ptr %15, align 4
  call void @_ZN6icu_779Char16PtrD2Ev(ptr noundef nonnull align 8 dereferenceable(8) %13) #11
  br label %53

53:                                               ; preds = %49, %45
  call void @_ZN6icu_7713UnicodeStringD1Ev(ptr noundef nonnull align 8 dereferenceable(64) %12) #11
  call void @llvm.lifetime.end.p0(i64 64, ptr %12) #11
  call void @llvm.lifetime.end.p0(i64 8, ptr %10) #11
  br label %56

54:                                               ; preds = %44, %33, %23
  call void @llvm.lifetime.end.p0(i64 8, ptr %10) #11
  %55 = load i32, ptr %5, align 4
  ret i32 %55

56:                                               ; preds = %53
  %57 = load ptr, ptr %14, align 8
  %58 = load i32, ptr %15, align 4
  %59 = insertvalue { ptr, i32 } poison, ptr %57, 0
  %60 = insertvalue { ptr, i32 } %59, i32 %58, 1
  resume { ptr, i32 } %60
}