; Function Attrs: mustprogress uwtable
define noundef i32 @unumf_resultToString_77(ptr noundef %0, ptr noundef %1, i32 noundef %2, ptr noundef %3) local_unnamed_addr #1 personality ptr @__gxx_personality_v0 {
  %5 = alloca %"class.icu_77::UnicodeString", align 8
  %6 = alloca %"class.icu_77::Char16Ptr", align 8
  %7 = load i32, ptr %3, align 4, !tbaa !13
  %8 = icmp slt i32 %7, 1
  br i1 %8, label %9, label %_ZN6icu_7713IcuCApiHelperI16UFormattedNumberNS_6number4impl20UFormattedNumberImplELi1178881536EE8validateEPKS1_R10UErrorCode.exit.thread

9:                                                ; preds = %4
  %10 = icmp eq ptr %0, null
  br i1 %10, label %.sink.split.i, label %11

11:                                               ; preds = %9
  %12 = getelementptr inbounds nuw i8, ptr %0, i64 16
  %13 = load i32, ptr %12, align 4, !tbaa !20
  %.not9.i = icmp eq i32 %13, 1178881536
  br i1 %.not9.i, label %_ZN6icu_7713IcuCApiHelperI16UFormattedNumberNS_6number4impl20UFormattedNumberImplELi1178881536EE8validateEPKS1_R10UErrorCode.exit, label %.sink.split.i

.sink.split.i:                                    ; preds = %11, %9
  %.sink.i = phi i32 [ 1, %9 ], [ 3, %11 ]
  store i32 %.sink.i, ptr %3, align 4, !tbaa !13
  br label %_ZN6icu_7713IcuCApiHelperI16UFormattedNumberNS_6number4impl20UFormattedNumberImplELi1178881536EE8validateEPKS1_R10UErrorCode.exit.thread

_ZN6icu_7713IcuCApiHelperI16UFormattedNumberNS_6number4impl20UFormattedNumberImplELi1178881536EE8validateEPKS1_R10UErrorCode.exit: ; preds = %11
  %14 = icmp eq ptr %1, null
  br i1 %14, label %15, label %16

15:                                               ; preds = %_ZN6icu_7713IcuCApiHelperI16UFormattedNumberNS_6number4impl20UFormattedNumberImplELi1178881536EE8validateEPKS1_R10UErrorCode.exit
  %.not16 = icmp eq i32 %2, 0
  br i1 %.not16, label %.split, label %18

16:                                               ; preds = %_ZN6icu_7713IcuCApiHelperI16UFormattedNumberNS_6number4impl20UFormattedNumberImplELi1178881536EE8validateEPKS1_R10UErrorCode.exit
  %17 = icmp slt i32 %2, 0
  br i1 %17, label %18, label %.split

18:                                               ; preds = %16, %15
  store i32 1, ptr %3, align 4, !tbaa !13
  br label %_ZN6icu_7713IcuCApiHelperI16UFormattedNumberNS_6number4impl20UFormattedNumberImplELi1178881536EE8validateEPKS1_R10UErrorCode.exit.thread

.split:                                           ; preds = %16, %15
  call void @llvm.lifetime.start.p0(i64 64, ptr nonnull %5) #15
  %19 = getelementptr inbounds nuw i8, ptr %0, i64 48
  call void @_ZNK6icu_7731FormattedValueStringBuilderImpl12toTempStringER10UErrorCode(ptr dead_on_unwind nonnull writable sret(%"class.icu_77::UnicodeString") align 8 %5, ptr noundef nonnull align 8 dereferenceable(300) %19, ptr noundef nonnull align 4 dereferenceable(4) %3)
  store ptr %1, ptr %6, align 8, !tbaa !57
  %20 = invoke noundef i32 @_ZNK6icu_7713UnicodeString7extractENS_9Char16PtrEiR10UErrorCode(ptr noundef nonnull align 8 dereferenceable(64) %5, ptr noundef nonnull %6, i32 noundef %2, ptr noundef nonnull align 4 dereferenceable(4) %3)
          to label %21 unwind label %23

21:                                               ; preds = %.split
  %22 = load ptr, ptr %6, align 8, !tbaa !57
  call void asm sideeffect "", "rm,~{memory},~{dirflag},~{fpsr},~{flags}"(ptr %22) #15, !srcloc !59
  call void @_ZN6icu_7713UnicodeStringD1Ev(ptr noundef nonnull align 8 dereferenceable(64) %5) #15
  call void @llvm.lifetime.end.p0(i64 64, ptr nonnull %5) #15
  br label %_ZN6icu_7713IcuCApiHelperI16UFormattedNumberNS_6number4impl20UFormattedNumberImplELi1178881536EE8validateEPKS1_R10UErrorCode.exit.thread

23:                                               ; preds = %.split
  %24 = landingpad { ptr, i32 }
          cleanup
  %25 = load ptr, ptr %6, align 8, !tbaa !57
  call void asm sideeffect "", "rm,~{memory},~{dirflag},~{fpsr},~{flags}"(ptr %25) #15, !srcloc !59
  call void @_ZN6icu_7713UnicodeStringD1Ev(ptr noundef nonnull align 8 dereferenceable(64) %5) #15
  call void @llvm.lifetime.end.p0(i64 64, ptr nonnull %5) #15
  resume { ptr, i32 } %24

_ZN6icu_7713IcuCApiHelperI16UFormattedNumberNS_6number4impl20UFormattedNumberImplELi1178881536EE8validateEPKS1_R10UErrorCode.exit.thread: ; preds = %.sink.split.i, %4, %21, %18
  %.0 = phi i32 [ 0, %18 ], [ %20, %21 ], [ 0, %4 ], [ 0, %.sink.split.i ]
  ret i32 %.0
}